target datalayout = "e-m:e-p270:32:32-p271:32:32-p272:64:64-i64:64-i128:128-f80:128-n8:16:32:64-S128"
target triple = "x86_64-unknown-linux-gnu"

%"class.icu_75::IcuToolErrorCode" = type { %"class.icu_75::ErrorCode.base", ptr }
%"class.icu_75::ErrorCode.base" = type <{ ptr, i32 }>
%"class.icu_75::ErrorCode" = type <{ ptr, i32, [4 x i8] }>

@.str.92 = private unnamed_addr constant [19 x i8] c"genrb: convertTrie\00", align 1
@_ZTVN6icu_7516IcuToolErrorCodeE = external unnamed_addr constant { [5 x ptr] }, align 8
@_ZTVN6icu_759ErrorCodeE = external unnamed_addr constant { [5 x ptr] }, align 8

; Function Attrs: mustprogress nounwind uwtable
define linkonce_odr dso_local void @_ZN6icu_759ErrorCodeC2Ev(ptr noundef nonnull align 8 dereferenceable(12) %this) unnamed_addr #0 comdat align 2 {
entry:
  %this.addr = alloca ptr, align 8
  store ptr %this, ptr %this.addr, align 8
  %this1 = load ptr, ptr %this.addr, align 8
  store ptr getelementptr inbounds ({ [5 x ptr] }, ptr @_ZTVN6icu_759ErrorCodeE, i32 0, i32 0, i32 2), ptr %this1, align 8
  %errorCode = getelementptr inbounds %"class.icu_75::ErrorCode", ptr %this1, i32 0, i32 1
  store i32 0, ptr %errorCode, align 8
  ret void
}

; Function Attrs: mustprogress nounwind uwtable
define internal noundef signext i8 @_ZL9U_FAILURE10UErrorCode(i32 noundef %code) #0 {
entry:
  %code.addr = alloca i32, align 4
  store i32 %code, ptr %code.addr, align 4
  %0 = load i32, ptr %code.addr, align 4
  %cmp = icmp sgt i32 %0, 0
  %conv = zext i1 %cmp to i8
  ret i8 %conv
}

; Function Attrs: mustprogress nounwind uwtable
define linkonce_odr dso_local noundef ptr @_ZN6icu_759ErrorCodecvP10UErrorCodeEv(ptr noundef nonnull align 8 dereferenceable(12) %this) #0 comdat align 2 {
entry:
  %this.addr = alloca ptr, align 8
  store ptr %this, ptr %this.addr, align 8
  %this1 = load ptr, ptr %this.addr, align 8
  %errorCode = getelementptr inbounds %"class.icu_75::ErrorCode", ptr %this1, i32 0, i32 1
  ret ptr %errorCode
}

; Function Attrs: mustprogress uwtable
define linkonce_odr dso_local void @_ZN6icu_7516IcuToolErrorCodeC2EPKc(ptr noundef nonnull align 8 dereferenceable(24) %this, ptr noundef %loc) unnamed_addr #1 comdat align 2 {
entry:
  %this.addr = alloca ptr, align 8
  %loc.addr = alloca ptr, align 8
  store ptr %this, ptr %this.addr, align 8
  store ptr %loc, ptr %loc.addr, align 8
  %this1 = load ptr, ptr %this.addr, align 8
  call void @_ZN6icu_759ErrorCodeC2Ev(ptr noundef nonnull align 8 dereferenceable(12) %this1)
  store ptr getelementptr inbounds ({ [5 x ptr] }, ptr @_ZTVN6icu_7516IcuToolErrorCodeE, i32 0, i32 0, i32 2), ptr %this1, align 8
  %location = getelementptr inbounds %"class.icu_75::IcuToolErrorCode", ptr %this1, i32 0, i32 1
  %0 = load ptr, ptr %loc.addr, align 8
  store ptr %0, ptr %location, align 8
  ret void
}

; Function Attrs: mustprogress uwtable
define internal noundef signext i8 @_ZL11convertTriePKviij(ptr noundef %context, i32 noundef %start, i32 noundef %end, i32 noundef %value) #1 personality ptr @__gxx_personality_v0 {
entry:
  %retval = alloca i8, align 1
  %context.addr = alloca ptr, align 8
  %start.addr = alloca i32, align 4
  %end.addr = alloca i32, align 4
  %value.addr = alloca i32, align 4
  %status = alloca %"class.icu_75::IcuToolErrorCode", align 8
  %exn.slot = alloca ptr, align 8
  %ehselector.slot = alloca i32, align 4
  store ptr %context, ptr %context.addr, align 8
  store i32 %start, ptr %start.addr, align 4
  store i32 %end, ptr %end.addr, align 4
  store i32 %value, ptr %value.addr, align 4
  %0 = load i32, ptr %start.addr, align 4
  %cmp = icmp sge i32 %0, 4352
  br i1 %cmp, label %land.lhs.true, label %if.end

land.lhs.true:                                    ; preds = %entry
  %1 = load i32, ptr %start.addr, align 4
  %cmp1 = icmp slt i32 %1, 4608
  br i1 %cmp1, label %land.lhs.true2, label %if.end

land.lhs.true2:                                   ; preds = %land.lhs.true
  %2 = load i32, ptr %end.addr, align 4
  %cmp3 = icmp sge i32 %2, 4352
  br i1 %cmp3, label %land.lhs.true4, label %if.end

land.lhs.true4:                                   ; preds = %land.lhs.true2
  %3 = load i32, ptr %end.addr, align 4
  %cmp5 = icmp slt i32 %3, 4608
  br i1 %cmp5, label %if.then, label %if.end

if.then:                                          ; preds = %land.lhs.true4
  store i8 1, ptr %retval, align 1
  br label %return

if.end:                                           ; preds = %land.lhs.true4, %land.lhs.true2, %land.lhs.true, %entry
  call void @_ZN6icu_7516IcuToolErrorCodeC2EPKc(ptr noundef nonnull align 8 dereferenceable(24) %status, ptr noundef @.str.92)
  %4 = load ptr, ptr %context.addr, align 8
  %5 = load i32, ptr %start.addr, align 4
  %6 = load i32, ptr %end.addr, align 4
  %7 = load i32, ptr %value.addr, align 4
  %call = invoke noundef ptr @_ZN6icu_759ErrorCodecvP10UErrorCodeEv(ptr noundef nonnull align 8 dereferenceable(12) %status)
          to label %invoke.cont unwind label %lpad

invoke.cont:                                      ; preds = %if.end
  invoke void @umutablecptrie_setRange_75(ptr noundef %4, i32 noundef %5, i32 noundef %6, i32 noundef %7, ptr noundef %call)
          to label %invoke.cont6 unwind label %lpad

invoke.cont6:                                     ; preds = %invoke.cont
  %call8 = invoke noundef ptr @_ZN6icu_759ErrorCodecvP10UErrorCodeEv(ptr noundef nonnull align 8 dereferenceable(12) %status)
          to label %invoke.cont7 unwind label %lpad

invoke.cont7:                                     ; preds = %invoke.cont6
  %8 = load i32, ptr %call8, align 4
  %call9 = call noundef signext i8 @_ZL9U_FAILURE10UErrorCode(i32 noundef %8)
  %tobool = icmp ne i8 %call9, 0
  %lnot = xor i1 %tobool, true
  %conv = zext i1 %lnot to i8
  store i8 %conv, ptr %retval, align 1
  call void @_ZN6icu_7516IcuToolErrorCodeD1Ev(ptr noundef nonnull align 8 dereferenceable(24) %status) #12
  br label %return

lpad:                                             ; preds = %invoke.cont6, %invoke.cont, %if.end
  %9 = landingpad { ptr, i32 }
          cleanup
  %10 = extractvalue { ptr, i32 } %9, 0
  store ptr %10, ptr %exn.slot, align 8
  %11 = extractvalue { ptr, i32 } %9, 1
  store i32 %11, ptr %ehselector.slot, align 4
  call void @_ZN6icu_7516IcuToolErrorCodeD1Ev(ptr noundef nonnull align 8 dereferenceable(24) %status) #12
  br label %eh.resume

return:                                           ; preds = %invoke.cont7, %if.then
  %12 = load i8, ptr %retval, align 1
  ret i8 %12

eh.resume:                                        ; preds = %lpad
  %exn = load ptr, ptr %exn.slot, align 8
  %sel = load i32, ptr %ehselector.slot, align 4
  %lpad.val = insertvalue { ptr, i32 } poison, ptr %exn, 0
  %lpad.val10 = insertvalue { ptr, i32 } %lpad.val, i32 %sel, 1
  resume { ptr, i32 } %lpad.val10
}