; Function Attrs: mustprogress uwtable
define internal noundef signext i8 @_ZL11convertTriePKviij(ptr noundef %context, i32 noundef %start, i32 noundef %end, i32 noundef %value) #1 personality ptr @__gxx_personality_v0 {
entry:
  %status = alloca %"class.icu_75::IcuToolErrorCode", align 8
  %0 = and i32 %start, -256
  %or.cond = icmp eq i32 %0, 4352
  %1 = and i32 %end, -256
  %2 = icmp eq i32 %1, 4352
  %or.cond2 = and i1 %or.cond, %2
  br i1 %or.cond2, label %return, label %if.end

if.end:                                           ; preds = %entry
  %errorCode.i.i = getelementptr inbounds i8, ptr %status, i64 8
  store i32 0, ptr %errorCode.i.i, align 8
  store ptr getelementptr inbounds ({ [5 x ptr] }, ptr @_ZTVN6icu_7516IcuToolErrorCodeE, i64 0, i32 0, i64 2), ptr %status, align 8
  %location.i = getelementptr inbounds i8, ptr %status, i64 16
  store ptr @.str.92, ptr %location.i, align 8
  invoke void @umutablecptrie_setRange_75(ptr noundef %context, i32 noundef %start, i32 noundef %end, i32 noundef %value, ptr noundef nonnull %errorCode.i.i)
          to label %invoke.cont6 unwind label %lpad

invoke.cont6:                                     ; preds = %if.end
  %3 = load i32, ptr %errorCode.i.i, align 8
  %cmp.i = icmp slt i32 %3, 1
  %conv = zext i1 %cmp.i to i8
  call void @_ZN6icu_7516IcuToolErrorCodeD1Ev(ptr noundef nonnull align 8 dereferenceable(24) %status) #19
  br label %return

lpad:                                             ; preds = %if.end
  %4 = landingpad { ptr, i32 }
          cleanup
  call void @_ZN6icu_7516IcuToolErrorCodeD1Ev(ptr noundef nonnull align 8 dereferenceable(24) %status) #19
  resume { ptr, i32 } %4

return:                                           ; preds = %entry, %invoke.cont6
  %retval.0 = phi i8 [ %conv, %invoke.cont6 ], [ 1, %entry ]
  ret i8 %retval.0
}